target datalayout = "e-m:e-p270:32:32-p271:32:32-p272:64:64-i64:64-i128:128-f80:128-n8:16:32:64-S128"
target triple = "x86_64-pc-linux-gnu"

%struct.Vec_Int_t_ = type { i32, i32, ptr }
%struct.Abc_Obj_t_ = type { ptr, ptr, i32, i32, %struct.Vec_Int_t_, %struct.Vec_Int_t_, %union.anon, %union.anon.0 }
%union.anon = type { ptr }
%union.anon.0 = type { ptr }

; Function Attrs: nounwind uwtable
define i32 @Abc_NtkNodeFactor(ptr noundef %0, i32 noundef %1) #0 {
  %3 = alloca ptr, align 8
  %4 = alloca i32, align 4
  store ptr %0, ptr %3, align 8
  store i32 %1, ptr %4, align 4
  %5 = load ptr, ptr %3, align 8
  %6 = getelementptr inbounds %struct.Abc_Obj_t_, ptr %5, i32 0, i32 3
  %7 = load i32, ptr %6, align 4
  %8 = lshr i32 %7, 12
  %9 = sitofp i32 %8 to double
  %10 = call double @llvm.fmuladd.f64(double 1.000000e-02, double %9, double 1.000000e+00)
  %11 = fmul double 1.000000e+08, %10
  %12 = fptosi double %11 to i32
  ret i32 %12
}